; Function Attrs: nounwind uwtable
define hidden i32 @_ir_CALL_3(ptr nocapture noundef %0, i32 noundef %1, i32 noundef %2, i32 noundef %3, i32 noundef %4, i32 noundef %5) local_unnamed_addr #0 {
  %7 = getelementptr inbounds i8, ptr %0, i64 8
  %8 = load i32, ptr %7, align 8
  %9 = add nsw i32 %8, 1
  %10 = getelementptr inbounds i8, ptr %0, i64 12
  %11 = load i32, ptr %10, align 4
  %.not22.i = icmp slt i32 %9, %11
  %.pre30.i = load ptr, ptr %0, align 8
  br i1 %.not22.i, label %ir_emit_N.exit, label %.lr.ph.i

.lr.ph.i:                                         ; preds = %6
  %12 = getelementptr inbounds i8, ptr %0, i64 20
  %.pre29.i = load i32, ptr %12, align 4
  br label %13

13:                                               ; preds = %13, %.lr.ph.i
  %14 = phi i32 [ %.pre29.i, %.lr.ph.i ], [ %28, %13 ]
  %15 = phi ptr [ %.pre30.i, %.lr.ph.i ], [ %30, %13 ]
  %16 = phi i32 [ %11, %.lr.ph.i ], [ %31, %13 ]
  %17 = icmp slt i32 %16, 4096
  %18 = shl nsw i32 %16, 1
  %19 = icmp ult i32 %16, 8192
  %20 = add nuw nsw i32 %16, 4096
  %spec.select.i.i = select i1 %19, i32 8192, i32 %20
  %.sink.i.i = select i1 %17, i32 %18, i32 %spec.select.i.i
  store i32 %.sink.i.i, ptr %10, align 4
  %21 = sext i32 %14 to i64
  %22 = sub nsw i64 0, %21
  %23 = getelementptr inbounds %struct._ir_insn, ptr %15, i64 %22
  %24 = add nsw i32 %.sink.i.i, %14
  %25 = sext i32 %24 to i64
  %26 = shl nsw i64 %25, 4
  %27 = tail call ptr @_erealloc(ptr noundef %23, i64 noundef %26) #24
  %28 = load i32, ptr %12, align 4
  %29 = sext i32 %28 to i64
  %30 = getelementptr inbounds %struct._ir_insn, ptr %27, i64 %29
  store ptr %30, ptr %0, align 8
  %31 = load i32, ptr %10, align 4
  %.not.i = icmp slt i32 %9, %31
  br i1 %.not.i, label %ir_emit_N.exit, label %13

ir_emit_N.exit:                                   ; preds = %13, %6
  %32 = phi ptr [ %.pre30.i, %6 ], [ %30, %13 ]
  %33 = shl i32 %1, 8
  %34 = and i32 %33, 16449280
  %35 = add i32 %8, 2
  store i32 %35, ptr %7, align 8
  %36 = sext i32 %8 to i64
  %37 = getelementptr inbounds %struct._ir_insn, ptr %32, i64 %36
  %38 = or disjoint i32 %34, 327749
  store i32 %38, ptr %37, align 8
  %39 = shl nsw i64 %36, 4
  %40 = or disjoint i64 %39, 4
  %scevgep.i = getelementptr i8, ptr %32, i64 %40
  tail call void @llvm.memset.p0.i64(ptr noundef nonnull align 4 dereferenceable(28) %scevgep.i, i8 0, i64 28, i1 false)
  %41 = getelementptr inbounds i8, ptr %0, i64 248
  %42 = load i32, ptr %41, align 8
  %43 = load ptr, ptr %0, align 8
  %44 = getelementptr inbounds %struct._ir_insn, ptr %43, i64 %36, i32 0, i32 1
  store i32 %42, ptr %44, align 4
  %45 = load ptr, ptr %0, align 8
  %46 = getelementptr inbounds %struct._ir_insn, ptr %45, i64 %36, i32 1
  store i32 %2, ptr %46, align 4
  %47 = load ptr, ptr %0, align 8
  %48 = getelementptr inbounds %struct._ir_insn, ptr %47, i64 %36
  %49 = getelementptr inbounds i8, ptr %48, i64 12
  store i32 %3, ptr %49, align 4
  %50 = load ptr, ptr %0, align 8
  %51 = getelementptr inbounds %struct._ir_insn, ptr %50, i64 %36
  %52 = getelementptr inbounds i8, ptr %51, i64 16
  store i32 %4, ptr %52, align 4
  %53 = load ptr, ptr %0, align 8
  %54 = getelementptr inbounds %struct._ir_insn, ptr %53, i64 %36
  %55 = getelementptr inbounds i8, ptr %54, i64 20
  store i32 %5, ptr %55, align 4
  store i32 %8, ptr %41, align 8
  ret i32 %8
}